target datalayout = "e-m:e-p270:32:32-p271:32:32-p272:64:64-i64:64-i128:128-f80:128-n8:16:32:64-S128"
target triple = "x86_64-pc-linux-gnu"

%struct.hwloc_topology = type { i32, i32, i32, ptr, ptr, i64, [20 x i32], [20 x i32], i64, i64, i32, ptr, i64, ptr, i64, [6 x %struct.hwloc_special_level_s], ptr, ptr, %struct.hwloc_binding_hooks, %struct.hwloc_topology_support, %struct.hwloc_infos_s, ptr, ptr, i32, ptr, ptr, i32, i32, ptr, i32, i32, ptr, i32, i32, i32, [5 x float], i32, ptr, ptr, i32, i32, ptr, i32, %struct.hwloc_numanode_attr_s, i32, i32, ptr, i64, i32, ptr, ptr, ptr }
%struct.hwloc_special_level_s = type { i32, ptr, ptr, ptr }
%struct.hwloc_binding_hooks = type { ptr, ptr, ptr, ptr, ptr, ptr, ptr, ptr, ptr, ptr, ptr, ptr, ptr, ptr, ptr, ptr, ptr, ptr, ptr, ptr, ptr, ptr, ptr, ptr }
%struct.hwloc_topology_support = type { ptr, ptr, ptr, ptr }
%struct.hwloc_infos_s = type { ptr, i32, i32 }
%struct.hwloc_numanode_attr_s = type { i64, i32, ptr }

; Function Attrs: nounwind uwtable
define internal ptr @hwloc_fix_cpubind(ptr noundef %0, ptr noundef %1) #0 {
  %3 = alloca ptr, align 8
  %4 = alloca ptr, align 8
  %5 = alloca ptr, align 8
  %6 = alloca ptr, align 8
  %7 = alloca ptr, align 8
  %8 = alloca i32, align 4
  store ptr %0, ptr %4, align 8, !tbaa !3
  store ptr %1, ptr %5, align 8, !tbaa !8
  call void @llvm.lifetime.start.p0(i64 8, ptr %6) #9
  %9 = load ptr, ptr %4, align 8, !tbaa !3
  %10 = call ptr @hwloc_topology_get_topology_cpuset(ptr noundef %9) #10
  store ptr %10, ptr %6, align 8, !tbaa !8
  call void @llvm.lifetime.start.p0(i64 8, ptr %7) #9
  %11 = load ptr, ptr %4, align 8, !tbaa !3
  %12 = call ptr @hwloc_topology_get_complete_cpuset(ptr noundef %11) #10
  store ptr %12, ptr %7, align 8, !tbaa !8
  %13 = load ptr, ptr %5, align 8, !tbaa !8
  %14 = call i32 @hwloc_bitmap_iszero(ptr noundef %13) #10
  %15 = icmp ne i32 %14, 0
  br i1 %15, label %16, label %18

16:                                               ; preds = %2
  %17 = call ptr @__errno_location() #8
  store i32 22, ptr %17, align 4, !tbaa !10
  store ptr null, ptr %3, align 8
  store i32 1, ptr %8, align 4
  br label %34

18:                                               ; preds = %2
  %19 = load ptr, ptr %5, align 8, !tbaa !8
  %20 = load ptr, ptr %7, align 8, !tbaa !8
  %21 = call i32 @hwloc_bitmap_isincluded(ptr noundef %19, ptr noundef %20) #10
  %22 = icmp ne i32 %21, 0
  br i1 %22, label %25, label %23

23:                                               ; preds = %18
  %24 = call ptr @__errno_location() #8
  store i32 22, ptr %24, align 4, !tbaa !10
  store ptr null, ptr %3, align 8
  store i32 1, ptr %8, align 4
  br label %34

25:                                               ; preds = %18
  %26 = load ptr, ptr %6, align 8, !tbaa !8
  %27 = load ptr, ptr %5, align 8, !tbaa !8
  %28 = call i32 @hwloc_bitmap_isincluded(ptr noundef %26, ptr noundef %27) #10
  %29 = icmp ne i32 %28, 0
  br i1 %29, label %30, label %32

30:                                               ; preds = %25
  %31 = load ptr, ptr %7, align 8, !tbaa !8
  store ptr %31, ptr %5, align 8, !tbaa !8
  br label %32

32:                                               ; preds = %30, %25
  %33 = load ptr, ptr %5, align 8, !tbaa !8
  store ptr %33, ptr %3, align 8
  store i32 1, ptr %8, align 4
  br label %34

34:                                               ; preds = %32, %23, %16
  call void @llvm.lifetime.end.p0(i64 8, ptr %7) #9
  call void @llvm.lifetime.end.p0(i64 8, ptr %6) #9
  %35 = load ptr, ptr %3, align 8
  ret ptr %35
}

; Function Attrs: nounwind uwtable
define i32 @hwloc_set_thread_cpubind(ptr noundef %0, i64 noundef %1, ptr noundef %2, i32 noundef %3) #0 {
  %5 = alloca i32, align 4
  %6 = alloca ptr, align 8
  %7 = alloca i64, align 8
  %8 = alloca ptr, align 8
  %9 = alloca i32, align 4
  store ptr %0, ptr %6, align 8, !tbaa !3
  store i64 %1, ptr %7, align 8, !tbaa !40
  store ptr %2, ptr %8, align 8, !tbaa !8
  store i32 %3, ptr %9, align 4, !tbaa !10
  %10 = load i32, ptr %9, align 4, !tbaa !10
  %11 = and i32 %10, -16
  %12 = icmp ne i32 %11, 0
  br i1 %12, label %13, label %15

13:                                               ; preds = %4
  %14 = call ptr @__errno_location() #8
  store i32 22, ptr %14, align 4, !tbaa !10
  store i32 -1, ptr %5, align 4
  br label %40

15:                                               ; preds = %4
  %16 = load ptr, ptr %6, align 8, !tbaa !3
  %17 = load ptr, ptr %8, align 8, !tbaa !8
  %18 = call ptr @hwloc_fix_cpubind(ptr noundef %16, ptr noundef %17)
  store ptr %18, ptr %8, align 8, !tbaa !8
  %19 = load ptr, ptr %8, align 8, !tbaa !8
  %20 = icmp ne ptr %19, null
  br i1 %20, label %22, label %21

21:                                               ; preds = %15
  store i32 -1, ptr %5, align 4
  br label %40

22:                                               ; preds = %15
  %23 = load ptr, ptr %6, align 8, !tbaa !3
  %24 = getelementptr inbounds nuw %struct.hwloc_topology, ptr %23, i32 0, i32 18
  %25 = getelementptr inbounds nuw %struct.hwloc_binding_hooks, ptr %24, i32 0, i32 6
  %26 = load ptr, ptr %25, align 8, !tbaa !41
  %27 = icmp ne ptr %26, null
  br i1 %27, label %28, label %38

28:                                               ; preds = %22
  %29 = load ptr, ptr %6, align 8, !tbaa !3
  %30 = getelementptr inbounds nuw %struct.hwloc_topology, ptr %29, i32 0, i32 18
  %31 = getelementptr inbounds nuw %struct.hwloc_binding_hooks, ptr %30, i32 0, i32 6
  %32 = load ptr, ptr %31, align 8, !tbaa !41
  %33 = load ptr, ptr %6, align 8, !tbaa !3
  %34 = load i64, ptr %7, align 8, !tbaa !40
  %35 = load ptr, ptr %8, align 8, !tbaa !8
  %36 = load i32, ptr %9, align 4, !tbaa !10
  %37 = call i32 %32(ptr noundef %33, i64 noundef %34, ptr noundef %35, i32 noundef %36)
  store i32 %37, ptr %5, align 4
  br label %40

38:                                               ; preds = %22
  %39 = call ptr @__errno_location() #8
  store i32 38, ptr %39, align 4, !tbaa !10
  store i32 -1, ptr %5, align 4
  br label %40

40:                                               ; preds = %38, %28, %21, %13
  %41 = load i32, ptr %5, align 4
  ret i32 %41
}