; Function Attrs: nounwind uwtable
define i32 @hwloc_set_thread_cpubind(ptr noundef %0, i64 noundef %1, ptr noundef %2, i32 noundef %3) local_unnamed_addr #0 {
  %.not = icmp ult i32 %3, 16
  br i1 %.not, label %7, label %5

5:                                                ; preds = %4
  %6 = tail call ptr @__errno_location() #12
  store i32 22, ptr %6, align 4, !tbaa !3
  br label %hwloc_fix_cpubind.exit.thread

7:                                                ; preds = %4
  %8 = tail call ptr @hwloc_topology_get_topology_cpuset(ptr noundef readonly %0) #13
  %9 = tail call ptr @hwloc_topology_get_complete_cpuset(ptr noundef readonly %0) #13
  %10 = tail call i32 @hwloc_bitmap_iszero(ptr noundef readonly %2) #13
  %.not.i = icmp eq i32 %10, 0
  br i1 %.not.i, label %13, label %11

11:                                               ; preds = %7
  %12 = tail call ptr @__errno_location() #12
  store i32 22, ptr %12, align 4, !tbaa !3
  br label %hwloc_fix_cpubind.exit.thread

13:                                               ; preds = %7
  %14 = tail call i32 @hwloc_bitmap_isincluded(ptr noundef readonly %2, ptr noundef %9) #13
  %.not11.i = icmp eq i32 %14, 0
  br i1 %.not11.i, label %15, label %hwloc_fix_cpubind.exit

15:                                               ; preds = %13
  %16 = tail call ptr @__errno_location() #12
  store i32 22, ptr %16, align 4, !tbaa !3
  br label %hwloc_fix_cpubind.exit.thread

hwloc_fix_cpubind.exit:                           ; preds = %13
  %17 = tail call i32 @hwloc_bitmap_isincluded(ptr noundef %8, ptr noundef readonly %2) #13
  %.not12.i = icmp eq i32 %17, 0
  %spec.select.i = select i1 %.not12.i, ptr %2, ptr %9
  %.not12 = icmp eq ptr %spec.select.i, null
  br i1 %.not12, label %hwloc_fix_cpubind.exit.thread, label %18

18:                                               ; preds = %hwloc_fix_cpubind.exit
  %19 = getelementptr inbounds nuw i8, ptr %0, i64 512
  %20 = load ptr, ptr %19, align 8, !tbaa !37
  %.not13 = icmp eq ptr %20, null
  br i1 %.not13, label %23, label %21

21:                                               ; preds = %18
  %22 = tail call i32 %20(ptr noundef nonnull %0, i64 noundef %1, ptr noundef nonnull %spec.select.i, i32 noundef %3) #14
  br label %hwloc_fix_cpubind.exit.thread

23:                                               ; preds = %18
  %24 = tail call ptr @__errno_location() #12
  store i32 38, ptr %24, align 4, !tbaa !3
  br label %hwloc_fix_cpubind.exit.thread

hwloc_fix_cpubind.exit.thread:                    ; preds = %15, %11, %hwloc_fix_cpubind.exit, %23, %21, %5
  %.0 = phi i32 [ -1, %5 ], [ %22, %21 ], [ -1, %23 ], [ -1, %hwloc_fix_cpubind.exit ], [ -1, %11 ], [ -1, %15 ]
  ret i32 %.0
}